; Function Attrs: nofree norecurse nosync nounwind memory(readwrite, inaccessiblemem: none) uwtable
define void @Abc_NtkRetimeTranferToCopy(ptr noundef readonly captures(none) %0) local_unnamed_addr #5 {
  %2 = getelementptr inbounds nuw i8, ptr %0, i64 32
  %3 = load ptr, ptr %2, align 8, !tbaa !45
  %4 = getelementptr i8, ptr %3, i64 4
  %.val12 = load i32, ptr %4, align 4, !tbaa !34
  %5 = icmp sgt i32 %.val12, 0
  br i1 %5, label %.lr.ph, label %.critedge

.lr.ph:                                           ; preds = %1, %20
  %6 = phi ptr [ %21, %20 ], [ %3, %1 ]
  %indvars.iv = phi i64 [ %indvars.iv.next, %20 ], [ 0, %1 ]
  %7 = getelementptr i8, ptr %6, i64 8
  %.val9.val = load ptr, ptr %7, align 8, !tbaa !36
  %8 = getelementptr inbounds nuw ptr, ptr %.val9.val, i64 %indvars.iv
  %9 = load ptr, ptr %8, align 8, !tbaa !37
  %10 = icmp eq ptr %9, null
  br i1 %10, label %20, label %11

11:                                               ; preds = %.lr.ph
  %12 = getelementptr i8, ptr %9, i64 20
  %.val10 = load i32, ptr %12, align 4
  %13 = and i32 %.val10, 15
  %.not = icmp eq i32 %13, 8
  br i1 %.not, label %14, label %20

14:                                               ; preds = %11
  %15 = getelementptr i8, ptr %9, i64 56
  %.val11 = load ptr, ptr %15, align 8, !tbaa !38
  %16 = icmp eq ptr %.val11, inttoptr (i64 2 to ptr)
  %17 = zext i1 %16 to i64
  %18 = inttoptr i64 %17 to ptr
  %19 = getelementptr inbounds nuw i8, ptr %9, i64 64
  store ptr %18, ptr %19, align 8, !tbaa !38
  %.pre = load ptr, ptr %2, align 8, !tbaa !45
  br label %20

20:                                               ; preds = %.lr.ph, %14, %11
  %21 = phi ptr [ %6, %.lr.ph ], [ %.pre, %14 ], [ %6, %11 ]
  %indvars.iv.next = add nuw nsw i64 %indvars.iv, 1
  %22 = getelementptr i8, ptr %21, i64 4
  %.val = load i32, ptr %22, align 4, !tbaa !34
  %23 = sext i32 %.val to i64
  %24 = icmp slt i64 %indvars.iv.next, %23
  br i1 %24, label %.lr.ph, label %.critedge, !llvm.loop !57

.critedge:                                        ; preds = %20, %1
  ret void
}